target datalayout = "e-m:e-p270:32:32-p271:32:32-p272:64:64-i64:64-i128:128-f80:128-n8:16:32:64-S128"
target triple = "x86_64-pc-linux-gnu"

%struct.Ivy_Obj_t_ = type { i32, i32, i32, i32, ptr, ptr, ptr, ptr, ptr, ptr, ptr, ptr }

@Ivy_NodeGetTruth_rec.uMasks = internal global [5 x i32] [i32 -1431655766, i32 -858993460, i32 -252645136, i32 -16711936, i32 -65536], align 16

; Function Attrs: inlinehint nounwind uwtable
define internal i32 @Ivy_IsComplement(ptr noundef %0) #3 {
  %2 = alloca ptr, align 8
  store ptr %0, ptr %2, align 8, !tbaa !23
  %3 = load ptr, ptr %2, align 8, !tbaa !23
  %4 = ptrtoint ptr %3 to i64
  %5 = and i64 %4, 1
  %6 = trunc i64 %5 to i32
  ret i32 %6
}

; Function Attrs: inlinehint nounwind uwtable
define internal ptr @Ivy_Regular(ptr noundef %0) #3 {
  %2 = alloca ptr, align 8
  store ptr %0, ptr %2, align 8, !tbaa !23
  %3 = load ptr, ptr %2, align 8, !tbaa !23
  %4 = ptrtoint ptr %3 to i64
  %5 = and i64 %4, -2
  %6 = inttoptr i64 %5 to ptr
  ret ptr %6
}

; Function Attrs: inlinehint nounwind uwtable
define internal i32 @Ivy_ObjFaninC1(ptr noundef %0) #3 {
  %2 = alloca ptr, align 8
  store ptr %0, ptr %2, align 8, !tbaa !23
  %3 = load ptr, ptr %2, align 8, !tbaa !23
  %4 = getelementptr inbounds nuw %struct.Ivy_Obj_t_, ptr %3, i32 0, i32 5
  %5 = load ptr, ptr %4, align 8, !tbaa !84
  %6 = call i32 @Ivy_IsComplement(ptr noundef %5)
  ret i32 %6
}

; Function Attrs: inlinehint nounwind uwtable
define internal ptr @Ivy_ObjFanin1(ptr noundef %0) #3 {
  %2 = alloca ptr, align 8
  store ptr %0, ptr %2, align 8, !tbaa !23
  %3 = load ptr, ptr %2, align 8, !tbaa !23
  %4 = getelementptr inbounds nuw %struct.Ivy_Obj_t_, ptr %3, i32 0, i32 5
  %5 = load ptr, ptr %4, align 8, !tbaa !84
  %6 = call ptr @Ivy_Regular(ptr noundef %5)
  ret ptr %6
}

; Function Attrs: inlinehint nounwind uwtable
define internal i32 @Ivy_ObjIsBuf(ptr noundef %0) #3 {
  %2 = alloca ptr, align 8
  store ptr %0, ptr %2, align 8, !tbaa !23
  %3 = load ptr, ptr %2, align 8, !tbaa !23
  %4 = getelementptr inbounds nuw %struct.Ivy_Obj_t_, ptr %3, i32 0, i32 2
  %5 = load i32, ptr %4, align 8
  %6 = and i32 %5, 15
  %7 = icmp eq i32 %6, 7
  %8 = zext i1 %7 to i32
  ret i32 %8
}

; Function Attrs: inlinehint nounwind uwtable
define internal i32 @Ivy_ObjFaninC0(ptr noundef %0) #3 {
  %2 = alloca ptr, align 8
  store ptr %0, ptr %2, align 8, !tbaa !23
  %3 = load ptr, ptr %2, align 8, !tbaa !23
  %4 = getelementptr inbounds nuw %struct.Ivy_Obj_t_, ptr %3, i32 0, i32 4
  %5 = load ptr, ptr %4, align 8, !tbaa !83
  %6 = call i32 @Ivy_IsComplement(ptr noundef %5)
  ret i32 %6
}

; Function Attrs: inlinehint nounwind uwtable
define internal ptr @Ivy_ObjFanin0(ptr noundef %0) #3 {
  %2 = alloca ptr, align 8
  store ptr %0, ptr %2, align 8, !tbaa !23
  %3 = load ptr, ptr %2, align 8, !tbaa !23
  %4 = getelementptr inbounds nuw %struct.Ivy_Obj_t_, ptr %3, i32 0, i32 4
  %5 = load ptr, ptr %4, align 8, !tbaa !83
  %6 = call ptr @Ivy_Regular(ptr noundef %5)
  ret ptr %6
}

; Function Attrs: nounwind uwtable
define i32 @Ivy_NodeGetTruth_rec(ptr noundef %0, ptr noundef %1, i32 noundef %2) #0 {
  %4 = alloca i32, align 4
  %5 = alloca ptr, align 8
  %6 = alloca ptr, align 8
  %7 = alloca i32, align 4
  %8 = alloca i32, align 4
  %9 = alloca i32, align 4
  %10 = alloca i32, align 4
  %11 = alloca i32, align 4
  store ptr %0, ptr %5, align 8, !tbaa !23
  store ptr %1, ptr %6, align 8, !tbaa !81
  store i32 %2, ptr %7, align 4, !tbaa !8
  call void @llvm.lifetime.start.p0(i64 4, ptr %8) #7
  call void @llvm.lifetime.start.p0(i64 4, ptr %9) #7
  call void @llvm.lifetime.start.p0(i64 4, ptr %10) #7
  store i32 0, ptr %10, align 4, !tbaa !8
  br label %12

12:                                               ; preds = %32, %3
  %13 = load i32, ptr %10, align 4, !tbaa !8
  %14 = load i32, ptr %7, align 4, !tbaa !8
  %15 = icmp slt i32 %13, %14
  br i1 %15, label %16, label %35

16:                                               ; preds = %12
  %17 = load ptr, ptr %5, align 8, !tbaa !23
  %18 = getelementptr inbounds nuw %struct.Ivy_Obj_t_, ptr %17, i32 0, i32 0
  %19 = load i32, ptr %18, align 8, !tbaa !42
  %20 = load ptr, ptr %6, align 8, !tbaa !81
  %21 = load i32, ptr %10, align 4, !tbaa !8
  %22 = sext i32 %21 to i64
  %23 = getelementptr inbounds i32, ptr %20, i64 %22
  %24 = load i32, ptr %23, align 4, !tbaa !8
  %25 = icmp eq i32 %19, %24
  br i1 %25, label %26, label %31

26:                                               ; preds = %16
  %27 = load i32, ptr %10, align 4, !tbaa !8
  %28 = sext i32 %27 to i64
  %29 = getelementptr inbounds [5 x i32], ptr @Ivy_NodeGetTruth_rec.uMasks, i64 0, i64 %28
  %30 = load i32, ptr %29, align 4, !tbaa !8
  store i32 %30, ptr %4, align 4
  store i32 1, ptr %11, align 4
  br label %69

31:                                               ; preds = %16
  br label %32

32:                                               ; preds = %31
  %33 = load i32, ptr %10, align 4, !tbaa !8
  %34 = add nsw i32 %33, 1
  store i32 %34, ptr %10, align 4, !tbaa !8
  br label %12, !llvm.loop !82

35:                                               ; preds = %12
  %36 = load ptr, ptr %5, align 8, !tbaa !23
  %37 = call ptr @Ivy_ObjFanin0(ptr noundef %36)
  %38 = load ptr, ptr %6, align 8, !tbaa !81
  %39 = load i32, ptr %7, align 4, !tbaa !8
  %40 = call i32 @Ivy_NodeGetTruth_rec(ptr noundef %37, ptr noundef %38, i32 noundef %39)
  store i32 %40, ptr %8, align 4, !tbaa !8
  %41 = load ptr, ptr %5, align 8, !tbaa !23
  %42 = call i32 @Ivy_ObjFaninC0(ptr noundef %41)
  %43 = icmp ne i32 %42, 0
  br i1 %43, label %44, label %47

44:                                               ; preds = %35
  %45 = load i32, ptr %8, align 4, !tbaa !8
  %46 = xor i32 %45, -1
  store i32 %46, ptr %8, align 4, !tbaa !8
  br label %47

47:                                               ; preds = %44, %35
  %48 = load ptr, ptr %5, align 8, !tbaa !23
  %49 = call i32 @Ivy_ObjIsBuf(ptr noundef %48)
  %50 = icmp ne i32 %49, 0
  br i1 %50, label %51, label %53

51:                                               ; preds = %47
  %52 = load i32, ptr %8, align 4, !tbaa !8
  store i32 %52, ptr %4, align 4
  store i32 1, ptr %11, align 4
  br label %69

53:                                               ; preds = %47
  %54 = load ptr, ptr %5, align 8, !tbaa !23
  %55 = call ptr @Ivy_ObjFanin1(ptr noundef %54)
  %56 = load ptr, ptr %6, align 8, !tbaa !81
  %57 = load i32, ptr %7, align 4, !tbaa !8
  %58 = call i32 @Ivy_NodeGetTruth_rec(ptr noundef %55, ptr noundef %56, i32 noundef %57)
  store i32 %58, ptr %9, align 4, !tbaa !8
  %59 = load ptr, ptr %5, align 8, !tbaa !23
  %60 = call i32 @Ivy_ObjFaninC1(ptr noundef %59)
  %61 = icmp ne i32 %60, 0
  br i1 %61, label %62, label %65

62:                                               ; preds = %53
  %63 = load i32, ptr %9, align 4, !tbaa !8
  %64 = xor i32 %63, -1
  store i32 %64, ptr %9, align 4, !tbaa !8
  br label %65

65:                                               ; preds = %62, %53
  %66 = load i32, ptr %8, align 4, !tbaa !8
  %67 = load i32, ptr %9, align 4, !tbaa !8
  %68 = and i32 %66, %67
  store i32 %68, ptr %4, align 4
  store i32 1, ptr %11, align 4
  br label %69

69:                                               ; preds = %65, %51, %26
  call void @llvm.lifetime.end.p0(i64 4, ptr %10) #7
  call void @llvm.lifetime.end.p0(i64 4, ptr %9) #7
  call void @llvm.lifetime.end.p0(i64 4, ptr %8) #7
  %70 = load i32, ptr %4, align 4
  ret i32 %70
}