; Function Attrs: nofree nosync nounwind memory(read, inaccessiblemem: none) uwtable
define i32 @Ivy_NodeGetTruth_rec(ptr noundef readonly captures(none) %0, ptr noundef %1, i32 noundef %2) local_unnamed_addr #4 {
  %4 = icmp sgt i32 %2, 0
  br i1 %4, label %.lr.ph, label %._crit_edge

.lr.ph:                                           ; preds = %3
  %5 = load i32, ptr %0, align 8, !tbaa !34
  %wide.trip.count = zext nneg i32 %2 to i64
  br label %7

6:                                                ; preds = %7
  %indvars.iv.next = add nuw nsw i64 %indvars.iv, 1
  %exitcond.not = icmp eq i64 %indvars.iv.next, %wide.trip.count
  br i1 %exitcond.not, label %._crit_edge, label %7, !llvm.loop !98

7:                                                ; preds = %.lr.ph, %6
  %indvars.iv = phi i64 [ 0, %.lr.ph ], [ %indvars.iv.next, %6 ]
  %8 = getelementptr inbounds nuw i32, ptr %1, i64 %indvars.iv
  %9 = load i32, ptr %8, align 4, !tbaa !37
  %10 = icmp eq i32 %5, %9
  br i1 %10, label %11, label %6

11:                                               ; preds = %7
  %12 = getelementptr inbounds nuw [5 x i32], ptr @Ivy_NodeGetTruth_rec.uMasks, i64 0, i64 %indvars.iv
  %13 = load i32, ptr %12, align 4, !tbaa !37
  br label %common.ret39

._crit_edge:                                      ; preds = %6, %3
  %14 = getelementptr i8, ptr %0, i64 16
  %.val28 = load ptr, ptr %14, align 8, !tbaa !79
  %15 = ptrtoint ptr %.val28 to i64
  %16 = and i64 %15, -2
  %17 = inttoptr i64 %16 to ptr
  %18 = tail call i32 @Ivy_NodeGetTruth_rec(ptr noundef %17, ptr noundef %1, i32 noundef %2)
  %19 = trunc i64 %15 to i32
  %20 = and i32 %19, 1
  %21 = sub nsw i32 0, %20
  %spec.select = xor i32 %18, %21
  %22 = getelementptr i8, ptr %0, i64 8
  %.val = load i32, ptr %22, align 8
  %23 = and i32 %.val, 15
  %.not = icmp eq i32 %23, 7
  br i1 %.not, label %common.ret39, label %24

common.ret39:                                     ; preds = %._crit_edge, %11, %24
  %common.ret39.op = phi i32 [ %33, %24 ], [ %13, %11 ], [ %spec.select, %._crit_edge ]
  ret i32 %common.ret39.op

24:                                               ; preds = %._crit_edge
  %25 = getelementptr i8, ptr %0, i64 24
  %.val30 = load ptr, ptr %25, align 8, !tbaa !80
  %26 = ptrtoint ptr %.val30 to i64
  %27 = and i64 %26, -2
  %28 = inttoptr i64 %27 to ptr
  %29 = tail call i32 @Ivy_NodeGetTruth_rec(ptr noundef %28, ptr noundef %1, i32 noundef %2)
  %30 = trunc i64 %26 to i32
  %31 = and i32 %30, 1
  %32 = sub nsw i32 0, %31
  %spec.select27 = xor i32 %29, %32
  %33 = and i32 %spec.select27, %spec.select
  br label %common.ret39
}